target datalayout = "e-m:e-p270:32:32-p271:32:32-p272:64:64-i64:64-i128:128-f80:128-n8:16:32:64-S128"
target triple = "x86_64-pc-linux-gnu"

@.str.4 = private unnamed_addr constant [2 x i8] c"\0A\00", align 1
@.str.5 = private unnamed_addr constant [35 x i8] c"    attrmap [options] [selection]\0A\00", align 1
@.str.6 = private unnamed_addr constant [64 x i8] c"This command renames attributes and/or maps key/value pairs to\0A\00", align 1
@.str.7 = private unnamed_addr constant [24 x i8] c"other key/value pairs.\0A\00", align 1
@.str.8 = private unnamed_addr constant [14 x i8] c"    -modattr\0A\00", align 1
@.str.9 = private unnamed_addr constant [80 x i8] c"        Operate on module attributes instead of attributes on wires and cells.\0A\00", align 1
@.str.10 = private unnamed_addr constant [69 x i8] c"For example, mapping Xilinx-style \22keep\22 attributes to Yosys-style:\0A\00", align 1
@.str.11 = private unnamed_addr constant [53 x i8] c"    attrmap -tocase keep -imap keep=\22true\22 keep=1 \\\0A\00", align 1
@.str.12 = private unnamed_addr constant [54 x i8] c"            -imap keep=\22false\22 keep=0 -remove keep=0\0A\00", align 1

; Function Attrs: mustprogress uwtable
define internal void @_ZN12_GLOBAL__N_111AttrmapPass4helpEv(ptr noundef nonnull align 8 dereferenceable(104) %0) unnamed_addr #4 align 2 {
  %2 = alloca ptr, align 8
  store ptr %0, ptr %2, align 8
  call void (ptr, ...) @_ZN5Yosys3logEPKcz(ptr noundef @.str.4)
  call void (ptr, ...) @_ZN5Yosys3logEPKcz(ptr noundef @.str.5)
  call void (ptr, ...) @_ZN5Yosys3logEPKcz(ptr noundef @.str.4)
  call void (ptr, ...) @_ZN5Yosys3logEPKcz(ptr noundef @.str.6)
  call void (ptr, ...) @_ZN5Yosys3logEPKcz(ptr noundef @.str.7)
  call void (ptr, ...) @_ZN5Yosys3logEPKcz(ptr noundef @.str.4)
  call void @_ZN12_GLOBAL__N_127log_attrmap_paramap_optionsEv()
  call void (ptr, ...) @_ZN5Yosys3logEPKcz(ptr noundef @.str.4)
  call void (ptr, ...) @_ZN5Yosys3logEPKcz(ptr noundef @.str.8)
  call void (ptr, ...) @_ZN5Yosys3logEPKcz(ptr noundef @.str.9)
  call void (ptr, ...) @_ZN5Yosys3logEPKcz(ptr noundef @.str.4)
  call void (ptr, ...) @_ZN5Yosys3logEPKcz(ptr noundef @.str.10)
  call void (ptr, ...) @_ZN5Yosys3logEPKcz(ptr noundef @.str.4)
  call void (ptr, ...) @_ZN5Yosys3logEPKcz(ptr noundef @.str.11)
  call void (ptr, ...) @_ZN5Yosys3logEPKcz(ptr noundef @.str.12)
  call void (ptr, ...) @_ZN5Yosys3logEPKcz(ptr noundef @.str.4)
  ret void
}